target datalayout = "e-m:e-p270:32:32-p271:32:32-p272:64:64-i64:64-i128:128-f80:128-n8:16:32:64-S128"
target triple = "x86_64-pc-linux-gnu"

@hf_kafka_error = internal global i32 0, align 4
@hf_kafka_partition_id = internal global i32 0, align 4
@ett_kafka_partition = internal global i32 0, align 4
@.str.628 = private unnamed_addr constant [11 x i8] c"Unknown %d\00", align 1
@.str.643 = private unnamed_addr constant [10 x i8] c"Partition\00", align 1
@.str.644 = private unnamed_addr constant [9 x i8] c" (ID=%u)\00", align 1
@.str.769 = private unnamed_addr constant [19 x i8] c" (ID=%u, Error=%s)\00", align 1

; Function Attrs: null_pointer_is_valid sspstrong uwtable
define internal ptr @kafka_error_to_str(i16 noundef signext %0) #0 {
  %2 = alloca i16, align 2
  store i16 %0, ptr %2, align 2
  %3 = load i16, ptr %2, align 2
  %4 = sext i16 %3 to i32
  %5 = call ptr @val_to_str(i32 noundef %4, ptr noundef @kafka_errors, ptr noundef @.str.628)
  ret ptr %5
}

; Function Attrs: null_pointer_is_valid sspstrong uwtable
define internal i32 @dissect_kafka_txn_offset_commit_response_partition(ptr noundef %0, ptr noundef %1, ptr noundef %2, i32 noundef %3, i16 noundef signext %4) #0 {
  %6 = alloca ptr, align 8
  %7 = alloca ptr, align 8
  %8 = alloca ptr, align 8
  %9 = alloca i32, align 4
  %10 = alloca i16, align 2
  %11 = alloca i32, align 4
  %12 = alloca i16, align 2
  %13 = alloca ptr, align 8
  %14 = alloca ptr, align 8
  store ptr %0, ptr %6, align 8
  store ptr %1, ptr %7, align 8
  store ptr %2, ptr %8, align 8
  store i32 %3, ptr %9, align 4
  store i16 %4, ptr %10, align 2
  call void @llvm.lifetime.start.p0(i64 4, ptr %11) #12
  call void @llvm.lifetime.start.p0(i64 2, ptr %12) #12
  call void @llvm.lifetime.start.p0(i64 8, ptr %13) #12
  call void @llvm.lifetime.start.p0(i64 8, ptr %14) #12
  %15 = load ptr, ptr %8, align 8
  %16 = load ptr, ptr %6, align 8
  %17 = load i32, ptr %9, align 4
  %18 = load i32, ptr @ett_kafka_partition, align 4
  %19 = call ptr @proto_tree_add_subtree(ptr noundef %15, ptr noundef %16, i32 noundef %17, i32 noundef -1, i32 noundef %18, ptr noundef %13, ptr noundef @.str.643)
  store ptr %19, ptr %14, align 8
  %20 = load ptr, ptr %6, align 8
  %21 = load i32, ptr %9, align 4
  %22 = call i32 @tvb_get_ntohl(ptr noundef %20, i32 noundef %21)
  store i32 %22, ptr %11, align 4
  %23 = load ptr, ptr %14, align 8
  %24 = load i32, ptr @hf_kafka_partition_id, align 4
  %25 = load ptr, ptr %6, align 8
  %26 = load i32, ptr %9, align 4
  %27 = call ptr @proto_tree_add_item(ptr noundef %23, i32 noundef %24, ptr noundef %25, i32 noundef %26, i32 noundef 4, i32 noundef 0)
  %28 = load i32, ptr %9, align 4
  %29 = add i32 %28, 4
  store i32 %29, ptr %9, align 4
  %30 = load ptr, ptr %6, align 8
  %31 = load i32, ptr %9, align 4
  %32 = call zeroext i16 @tvb_get_ntohs(ptr noundef %30, i32 noundef %31)
  store i16 %32, ptr %12, align 2
  %33 = load ptr, ptr %14, align 8
  %34 = load i32, ptr @hf_kafka_error, align 4
  %35 = load ptr, ptr %6, align 8
  %36 = load i32, ptr %9, align 4
  %37 = call ptr @proto_tree_add_item(ptr noundef %33, i32 noundef %34, ptr noundef %35, i32 noundef %36, i32 noundef 2, i32 noundef 0)
  %38 = load i32, ptr %9, align 4
  %39 = add i32 %38, 2
  store i32 %39, ptr %9, align 4
  %40 = load i16, ptr %10, align 2
  %41 = sext i16 %40 to i32
  %42 = icmp sge i32 %41, 3
  br i1 %42, label %43, label %49

43:                                               ; preds = %5
  %44 = load ptr, ptr %6, align 8
  %45 = load ptr, ptr %7, align 8
  %46 = load ptr, ptr %14, align 8
  %47 = load i32, ptr %9, align 4
  %48 = call i32 @dissect_kafka_tagged_fields(ptr noundef %44, ptr noundef %45, ptr noundef %46, i32 noundef %47, i16 noundef signext 0)
  store i32 %48, ptr %9, align 4
  br label %49

49:                                               ; preds = %43, %5
  %50 = load ptr, ptr %13, align 8
  %51 = load ptr, ptr %6, align 8
  %52 = load i32, ptr %9, align 4
  call void @proto_item_set_end(ptr noundef %50, ptr noundef %51, i32 noundef %52)
  %53 = load i16, ptr %12, align 2
  %54 = sext i16 %53 to i32
  %55 = icmp eq i32 %54, 0
  br i1 %55, label %56, label %59

56:                                               ; preds = %49
  %57 = load ptr, ptr %13, align 8
  %58 = load i32, ptr %11, align 4
  call void (ptr, ptr, ...) @proto_item_append_text(ptr noundef %57, ptr noundef @.str.644, i32 noundef %58)
  br label %64

59:                                               ; preds = %49
  %60 = load ptr, ptr %13, align 8
  %61 = load i32, ptr %11, align 4
  %62 = load i16, ptr %12, align 2
  %63 = call ptr @kafka_error_to_str(i16 noundef signext %62)
  call void (ptr, ptr, ...) @proto_item_append_text(ptr noundef %60, ptr noundef @.str.769, i32 noundef %61, ptr noundef %63)
  br label %64

64:                                               ; preds = %59, %56
  %65 = load i32, ptr %9, align 4
  call void @llvm.lifetime.end.p0(i64 8, ptr %14) #12
  call void @llvm.lifetime.end.p0(i64 8, ptr %13) #12
  call void @llvm.lifetime.end.p0(i64 2, ptr %12) #12
  call void @llvm.lifetime.end.p0(i64 4, ptr %11) #12
  ret i32 %65
}