; Function Attrs: null_pointer_is_valid sspstrong uwtable
define internal noundef i32 @dissect_kafka_txn_offset_commit_response_partition(ptr noundef %0, ptr noundef %1, ptr noundef %2, i32 noundef %3, i16 noundef signext %4) #0 {
  %6 = alloca ptr, align 8
  call void @llvm.lifetime.start.p0(i64 8, ptr nonnull %6) #9
  %7 = load i32, ptr @ett_kafka_partition, align 4
  %8 = call ptr @proto_tree_add_subtree(ptr noundef %2, ptr noundef %0, i32 noundef %3, i32 noundef -1, i32 noundef %7, ptr noundef nonnull %6, ptr noundef nonnull @.str.643)
  %9 = call i32 @tvb_get_ntohl(ptr noundef %0, i32 noundef %3)
  %10 = load i32, ptr @hf_kafka_partition_id, align 4
  %11 = call ptr @proto_tree_add_item(ptr noundef %8, i32 noundef %10, ptr noundef %0, i32 noundef %3, i32 noundef 4, i32 noundef 0)
  %12 = add i32 %3, 4
  %13 = call zeroext i16 @tvb_get_ntohs(ptr noundef %0, i32 noundef %12)
  %14 = load i32, ptr @hf_kafka_error, align 4
  %15 = call ptr @proto_tree_add_item(ptr noundef %8, i32 noundef %14, ptr noundef %0, i32 noundef %12, i32 noundef 2, i32 noundef 0)
  %16 = add i32 %3, 6
  %17 = icmp sgt i16 %4, 2
  br i1 %17, label %18, label %20

18:                                               ; preds = %5
  %19 = call fastcc i32 @dissect_kafka_tagged_fields(ptr noundef %0, ptr noundef %1, ptr noundef %8, i32 noundef %16)
  br label %20

20:                                               ; preds = %18, %5
  %.0 = phi i32 [ %19, %18 ], [ %16, %5 ]
  %21 = load ptr, ptr %6, align 8
  call void @proto_item_set_end(ptr noundef %21, ptr noundef %0, i32 noundef %.0)
  %22 = icmp eq i16 %13, 0
  %23 = load ptr, ptr %6, align 8
  br i1 %22, label %24, label %25

24:                                               ; preds = %20
  call void (ptr, ptr, ...) @proto_item_append_text(ptr noundef %23, ptr noundef nonnull @.str.644, i32 noundef %9)
  br label %28

25:                                               ; preds = %20
  %26 = sext i16 %13 to i32
  %27 = call ptr @val_to_str(i32 noundef %26, ptr noundef nonnull @kafka_errors, ptr noundef nonnull @.str.628)
  call void (ptr, ptr, ...) @proto_item_append_text(ptr noundef %23, ptr noundef nonnull @.str.769, i32 noundef %9, ptr noundef %27)
  br label %28

28:                                               ; preds = %25, %24
  call void @llvm.lifetime.end.p0(i64 8, ptr nonnull %6) #9
  ret i32 %.0
}